; Function Attrs: nounwind uwtable
define internal void @bf_const_pi_internal(ptr noundef %0, i64 noundef %1) #2 {
  %3 = alloca %struct.bf_t, align 8
  %4 = alloca %struct.bf_t, align 8
  %5 = alloca %struct.bf_t, align 8
  %6 = alloca %struct.bf_t, align 8
  %7 = load ptr, ptr %0, align 8, !tbaa !28
  call void @llvm.lifetime.start.p0(i64 40, ptr nonnull %5) #21
  call void @llvm.lifetime.start.p0(i64 40, ptr nonnull %6) #21
  %8 = udiv i64 %1, 47
  %9 = add nuw nsw i64 %8, 1
  %10 = add i64 %1, 32
  store ptr %7, ptr %5, align 8, !tbaa !28
  %11 = getelementptr inbounds nuw i8, ptr %5, i64 8
  store i32 0, ptr %11, align 8, !tbaa !30
  %12 = getelementptr inbounds nuw i8, ptr %5, i64 16
  store i64 -9223372036854775808, ptr %12, align 8, !tbaa !31
  %13 = getelementptr inbounds nuw i8, ptr %5, i64 24
  call void @llvm.memset.p0.i64(ptr noundef nonnull align 8 dereferenceable(16) %13, i8 0, i64 16, i1 false)
  store ptr %7, ptr %6, align 8, !tbaa !28
  %14 = getelementptr inbounds nuw i8, ptr %6, i64 8
  store i32 0, ptr %14, align 8, !tbaa !30
  %15 = getelementptr inbounds nuw i8, ptr %6, i64 16
  store i64 -9223372036854775808, ptr %15, align 8, !tbaa !31
  %16 = getelementptr inbounds nuw i8, ptr %6, i64 24
  call void @llvm.memset.p0.i64(ptr noundef nonnull align 8 dereferenceable(16) %16, i8 0, i64 16, i1 false)
  call fastcc void @chud_bs(ptr noundef %5, ptr noundef nonnull %0, ptr noundef %6, i64 noundef 0, i64 noundef %9, i32 noundef 0)
  call void @llvm.lifetime.start.p0(i64 40, ptr nonnull %4) #21
  %17 = load ptr, ptr %6, align 8, !tbaa !28
  store ptr %17, ptr %4, align 8, !tbaa !28
  %18 = getelementptr inbounds nuw i8, ptr %4, i64 8
  %19 = getelementptr inbounds nuw i8, ptr %4, i64 16
  %20 = getelementptr inbounds nuw i8, ptr %4, i64 24
  call void @llvm.memset.p0.i64(ptr noundef nonnull align 8 dereferenceable(16) %20, i8 0, i64 16, i1 false)
  store i32 0, ptr %18, align 8, !tbaa !30
  %.val.i16.i.i = load ptr, ptr %17, align 8, !tbaa !19
  %21 = getelementptr i8, ptr %17, i64 8
  %.val13.i17.i.i = load ptr, ptr %21, align 8, !tbaa !7
  %22 = call ptr %.val13.i17.i.i(ptr noundef %.val.i16.i.i, ptr noundef null, i64 noundef 8) #21
  %23 = icmp eq ptr %22, null
  br i1 %23, label %.thread13.i, label %25

.thread13.i:                                      ; preds = %2
  store i64 9223372036854775807, ptr %19, align 8, !tbaa !31
  store i32 0, ptr %18, align 8, !tbaa !30
  %24 = call i32 @bf_mul(ptr noundef nonnull %6, ptr noundef nonnull %0, ptr noundef nonnull %4, i64 noundef %10, i32 noundef 0)
  br label %bf_mul_ui.exit

25:                                               ; preds = %2
  %26 = getelementptr inbounds nuw i8, ptr %4, i64 32
  store ptr %22, ptr %26, align 8, !tbaa !29
  store i64 1, ptr %20, align 8, !tbaa !32
  store i64 -3502831840350175232, ptr %22, align 8, !tbaa !33
  store i64 24, ptr %19, align 8, !tbaa !31
  %27 = call i32 @bf_mul(ptr noundef nonnull %6, ptr noundef nonnull %0, ptr noundef nonnull %4, i64 noundef %10, i32 noundef 0)
  %.val.i.i = load ptr, ptr %17, align 8, !tbaa !19
  %.val7.i.i = load ptr, ptr %21, align 8, !tbaa !7
  %28 = call ptr %.val7.i.i(ptr noundef %.val.i.i, ptr noundef nonnull %22, i64 noundef 0) #21
  br label %bf_mul_ui.exit

bf_mul_ui.exit:                                   ; preds = %.thread13.i, %25
  call void @llvm.lifetime.end.p0(i64 40, ptr nonnull %4) #21
  %29 = call fastcc i32 @bf_op2(ptr noundef nonnull %5, ptr noundef nonnull %6, ptr noundef nonnull %5, i64 noundef %10, i32 noundef 0, ptr noundef nonnull @__bf_add)
  %30 = call fastcc i32 @bf_op2(ptr noundef nonnull %0, ptr noundef nonnull %0, ptr noundef nonnull %5, i64 noundef %10, i32 noundef 6, ptr noundef nonnull @__bf_div)
  store i32 0, ptr %11, align 8, !tbaa !30
  %31 = load i64, ptr %13, align 8, !tbaa !32
  %.not.i15.i = icmp eq i64 %31, 1
  br i1 %.not.i15.i, label %.bf_resize.exit18.thread21_crit_edge.i, label %32

.bf_resize.exit18.thread21_crit_edge.i:           ; preds = %bf_mul_ui.exit
  %.phi.trans.insert.i = getelementptr inbounds nuw i8, ptr %5, i64 32
  %.pre.i = load ptr, ptr %.phi.trans.insert.i, align 8, !tbaa !29
  br label %bf_resize.exit18.thread21.i

32:                                               ; preds = %bf_mul_ui.exit
  %33 = load ptr, ptr %5, align 8, !tbaa !28
  %34 = getelementptr inbounds nuw i8, ptr %5, i64 32
  %35 = load ptr, ptr %34, align 8, !tbaa !29
  %.val.i16.i = load ptr, ptr %33, align 8, !tbaa !19
  %36 = getelementptr i8, ptr %33, i64 8
  %.val13.i17.i = load ptr, ptr %36, align 8, !tbaa !7
  %37 = call ptr %.val13.i17.i(ptr noundef %.val.i16.i, ptr noundef %35, i64 noundef 8) #21
  %38 = icmp eq ptr %37, null
  br i1 %38, label %bf_resize.exit18.i, label %39

39:                                               ; preds = %32
  store ptr %37, ptr %34, align 8, !tbaa !29
  store i64 1, ptr %13, align 8, !tbaa !32
  br label %bf_resize.exit18.thread21.i

bf_resize.exit18.thread21.i:                      ; preds = %39, %.bf_resize.exit18.thread21_crit_edge.i
  %40 = phi ptr [ %.pre.i, %.bf_resize.exit18.thread21_crit_edge.i ], [ %37, %39 ]
  store i64 -7182115505749098496, ptr %40, align 8, !tbaa !33
  store i64 20, ptr %12, align 8, !tbaa !31
  br label %bf_set_ui.exit

bf_resize.exit18.i:                               ; preds = %32
  %41 = load i64, ptr %13, align 8, !tbaa !32
  %.not.i.i.i = icmp eq i64 %41, 0
  br i1 %.not.i.i.i, label %bf_set_nan.exit.i, label %42

42:                                               ; preds = %bf_resize.exit18.i
  %43 = load ptr, ptr %5, align 8, !tbaa !28
  %44 = load ptr, ptr %34, align 8, !tbaa !29
  %.val.i.i.i = load ptr, ptr %43, align 8, !tbaa !19
  %45 = getelementptr i8, ptr %43, i64 8
  %.val13.i.i.i = load ptr, ptr %45, align 8, !tbaa !7
  %46 = call ptr %.val13.i.i.i(ptr noundef %.val.i.i.i, ptr noundef %44, i64 noundef 0) #21
  store ptr %46, ptr %34, align 8, !tbaa !29
  store i64 0, ptr %13, align 8, !tbaa !32
  br label %bf_set_nan.exit.i

bf_set_nan.exit.i:                                ; preds = %42, %bf_resize.exit18.i
  store i64 9223372036854775807, ptr %12, align 8, !tbaa !31
  store i32 0, ptr %11, align 8, !tbaa !30
  br label %bf_set_ui.exit

bf_set_ui.exit:                                   ; preds = %bf_resize.exit18.thread21.i, %bf_set_nan.exit.i
  %47 = call i32 @bf_sqrt(ptr noundef nonnull %6, ptr noundef nonnull %5, i64 noundef %10, i32 noundef 6)
  call void @llvm.lifetime.start.p0(i64 40, ptr nonnull %3) #21
  %48 = load ptr, ptr %6, align 8, !tbaa !28
  store ptr %48, ptr %3, align 8, !tbaa !28
  %49 = getelementptr inbounds nuw i8, ptr %3, i64 8
  %50 = getelementptr inbounds nuw i8, ptr %3, i64 16
  %51 = getelementptr inbounds nuw i8, ptr %3, i64 24
  call void @llvm.memset.p0.i64(ptr noundef nonnull align 8 dereferenceable(16) %51, i8 0, i64 16, i1 false)
  store i32 0, ptr %49, align 8, !tbaa !30
  %.val.i16.i.i17 = load ptr, ptr %48, align 8, !tbaa !19
  %52 = getelementptr i8, ptr %48, i64 8
  %.val13.i17.i.i18 = load ptr, ptr %52, align 8, !tbaa !7
  %53 = call ptr %.val13.i17.i.i18(ptr noundef %.val.i16.i.i17, ptr noundef null, i64 noundef 8) #21
  %54 = icmp eq ptr %53, null
  br i1 %54, label %.thread13.i22, label %56

.thread13.i22:                                    ; preds = %bf_set_ui.exit
  store i64 9223372036854775807, ptr %50, align 8, !tbaa !31
  store i32 0, ptr %49, align 8, !tbaa !30
  %55 = call i32 @bf_mul(ptr noundef nonnull %6, ptr noundef nonnull %6, ptr noundef nonnull %3, i64 noundef %10, i32 noundef 6)
  br label %bf_mul_ui.exit23

56:                                               ; preds = %bf_set_ui.exit
  %57 = getelementptr inbounds nuw i8, ptr %3, i64 32
  store ptr %53, ptr %57, align 8, !tbaa !29
  store i64 1, ptr %51, align 8, !tbaa !32
  store i64 -3427239316428947456, ptr %53, align 8, !tbaa !33
  store i64 16, ptr %50, align 8, !tbaa !31
  %58 = call i32 @bf_mul(ptr noundef nonnull %6, ptr noundef nonnull %6, ptr noundef nonnull %3, i64 noundef %10, i32 noundef 6)
  %.val.i.i19 = load ptr, ptr %48, align 8, !tbaa !19
  %.val7.i.i20 = load ptr, ptr %52, align 8, !tbaa !7
  %59 = call ptr %.val7.i.i20(ptr noundef %.val.i.i19, ptr noundef nonnull %53, i64 noundef 0) #21
  br label %bf_mul_ui.exit23

bf_mul_ui.exit23:                                 ; preds = %.thread13.i22, %56
  call void @llvm.lifetime.end.p0(i64 40, ptr nonnull %3) #21
  %60 = call i32 @bf_mul(ptr noundef nonnull %0, ptr noundef nonnull %0, ptr noundef nonnull %6, i64 noundef %1, i32 noundef 0)
  %61 = load ptr, ptr %5, align 8, !tbaa !28
  %.not.i = icmp eq ptr %61, null
  br i1 %.not.i, label %bf_delete.exit, label %62

62:                                               ; preds = %bf_mul_ui.exit23
  %63 = getelementptr inbounds nuw i8, ptr %5, i64 32
  %64 = load ptr, ptr %63, align 8, !tbaa !29
  %.not6.i = icmp eq ptr %64, null
  br i1 %.not6.i, label %bf_delete.exit, label %65

65:                                               ; preds = %62
  %.val.i = load ptr, ptr %61, align 8, !tbaa !19
  %66 = getelementptr i8, ptr %61, i64 8
  %.val7.i = load ptr, ptr %66, align 8, !tbaa !7
  %67 = call ptr %.val7.i(ptr noundef %.val.i, ptr noundef nonnull %64, i64 noundef 0) #21
  br label %bf_delete.exit

bf_delete.exit:                                   ; preds = %bf_mul_ui.exit23, %62, %65
  %68 = load ptr, ptr %6, align 8, !tbaa !28
  %.not.i24 = icmp eq ptr %68, null
  br i1 %.not.i24, label %bf_delete.exit28, label %69

69:                                               ; preds = %bf_delete.exit
  %70 = getelementptr inbounds nuw i8, ptr %6, i64 32
  %71 = load ptr, ptr %70, align 8, !tbaa !29
  %.not6.i25 = icmp eq ptr %71, null
  br i1 %.not6.i25, label %bf_delete.exit28, label %72

72:                                               ; preds = %69
  %.val.i26 = load ptr, ptr %68, align 8, !tbaa !19
  %73 = getelementptr i8, ptr %68, i64 8
  %.val7.i27 = load ptr, ptr %73, align 8, !tbaa !7
  %74 = call ptr %.val7.i27(ptr noundef %.val.i26, ptr noundef nonnull %71, i64 noundef 0) #21
  br label %bf_delete.exit28

bf_delete.exit28:                                 ; preds = %bf_delete.exit, %69, %72
  call void @llvm.lifetime.end.p0(i64 40, ptr nonnull %6) #21
  call void @llvm.lifetime.end.p0(i64 40, ptr nonnull %5) #21
  ret void
}